target datalayout = "e-m:e-p270:32:32-p271:32:32-p272:64:64-i64:64-i128:128-f80:128-n8:16:32:64-S128"
target triple = "x86_64-pc-linux-gnu"

%"class.icu_77::CollationRootElements" = type <{ ptr, i32, [4 x i8] }>

; Function Attrs: mustprogress nounwind uwtable
define noundef i32 @_ZNK6icu_7721CollationRootElements24getFirstSecTerForPrimaryEi(ptr noundef nonnull align 8 dereferenceable(12) %0, i32 noundef %1) #2 align 2 {
  %3 = alloca i32, align 4
  %4 = alloca ptr, align 8
  %5 = alloca i32, align 4
  %6 = alloca i32, align 4
  %7 = alloca i32, align 4
  store ptr %0, ptr %4, align 8, !tbaa !3
  store i32 %1, ptr %5, align 4, !tbaa !8
  %8 = load ptr, ptr %4, align 8
  call void @llvm.lifetime.start.p0(i64 4, ptr %6) #4
  %9 = getelementptr inbounds nuw %"class.icu_77::CollationRootElements", ptr %8, i32 0, i32 0
  %10 = load ptr, ptr %9, align 8, !tbaa !10
  %11 = load i32, ptr %5, align 4, !tbaa !8
  %12 = sext i32 %11 to i64
  %13 = getelementptr inbounds i32, ptr %10, i64 %12
  %14 = load i32, ptr %13, align 4, !tbaa !8
  store i32 %14, ptr %6, align 4, !tbaa !8
  %15 = load i32, ptr %6, align 4, !tbaa !8
  %16 = and i32 %15, 128
  %17 = icmp eq i32 %16, 0
  br i1 %17, label %18, label %19

18:                                               ; preds = %2
  store i32 83887360, ptr %3, align 4
  store i32 1, ptr %7, align 4
  br label %27

19:                                               ; preds = %2
  %20 = load i32, ptr %6, align 4, !tbaa !8
  %21 = and i32 %20, -129
  store i32 %21, ptr %6, align 4, !tbaa !8
  %22 = load i32, ptr %6, align 4, !tbaa !8
  %23 = icmp ugt i32 %22, 83887360
  br i1 %23, label %24, label %25

24:                                               ; preds = %19
  store i32 83887360, ptr %3, align 4
  store i32 1, ptr %7, align 4
  br label %27

25:                                               ; preds = %19
  %26 = load i32, ptr %6, align 4, !tbaa !8
  store i32 %26, ptr %3, align 4
  store i32 1, ptr %7, align 4
  br label %27

27:                                               ; preds = %25, %24, %18
  call void @llvm.lifetime.end.p0(i64 4, ptr %6) #4
  %28 = load i32, ptr %3, align 4
  ret i32 %28
}