; Function Attrs: mustprogress nofree norecurse nosync nounwind willreturn memory(read, inaccessiblemem: none) uwtable
define noundef range(i32 0, 83887361) i32 @_ZNK6icu_7721CollationRootElements24getFirstSecTerForPrimaryEi(ptr noundef nonnull readonly align 8 captures(none) dereferenceable(12) %0, i32 noundef %1) local_unnamed_addr #0 align 2 {
  %3 = load ptr, ptr %0, align 8, !tbaa !3
  %4 = sext i32 %1 to i64
  %5 = getelementptr inbounds i32, ptr %3, i64 %4
  %6 = load i32, ptr %5, align 4, !tbaa !10
  %7 = and i32 %6, 128
  %8 = icmp eq i32 %7, 0
  %9 = and i32 %6, -129
  %. = tail call i32 @llvm.umin.i32(i32 %9, i32 83887360)
  %.0 = select i1 %8, i32 83887360, i32 %.
  ret i32 %.0
}